target datalayout = "e-m:e-p270:32:32-p271:32:32-p272:64:64-i64:64-i128:128-f80:128-n8:16:32:64-S128"
target triple = "x86_64-unknown-linux-gnu"

%struct.AioContext = type { %struct._GSource, %struct.QemuRecMutex, ptr, %struct.AioHandlerList, %struct.AioHandlerList, i32, %struct.QemuLockCnt, %struct.BHList, %struct.anon, i8, %struct.EventNotifier, %struct.anon.0, ptr, i32, i32, ptr, ptr, %struct.io_uring, %struct.AioHandlerSList, %struct.QEMUTimerListGroup, i32, i64, i64, i64, i64, i64, %struct.AioHandlerList, i8, i32, ptr }
%struct._GSource = type { ptr, ptr, ptr, i32, ptr, i32, i32, i32, ptr, ptr, ptr, ptr, ptr }
%struct.QemuRecMutex = type { %struct.QemuMutex }
%struct.QemuMutex = type { %union.pthread_mutex_t, i8 }
%union.pthread_mutex_t = type { %struct.__pthread_mutex_s }
%struct.__pthread_mutex_s = type { i32, i32, i32, i32, i32, i16, i16, %struct.__pthread_internal_list }
%struct.__pthread_internal_list = type { ptr, ptr }
%struct.QemuLockCnt = type { i32 }
%struct.BHList = type { ptr }
%struct.anon = type { ptr, ptr }
%struct.EventNotifier = type { i32, i32, i8 }
%struct.anon.0 = type { ptr }
%struct.io_uring = type { %struct.io_uring_sq, %struct.io_uring_cq, i32, i32, i32, [3 x i32] }
%struct.io_uring_sq = type { ptr, ptr, ptr, ptr, ptr, ptr, ptr, ptr, i32, i32, i64, ptr, [4 x i32] }
%struct.io_uring_cq = type { ptr, ptr, ptr, ptr, ptr, ptr, ptr, i64, ptr, [4 x i32] }
%struct.AioHandlerSList = type { ptr }
%struct.QEMUTimerListGroup = type { [4 x ptr] }
%struct.AioHandlerList = type { ptr }
%struct.AioHandler = type { %struct._GPollFD, ptr, ptr, ptr, ptr, ptr, ptr, ptr, %struct.anon.1, %struct.anon.2, %struct.anon.3, %struct.anon.4, %struct.anon.5, i32, i64, i8 }
%struct._GPollFD = type { i32, i16, i16 }
%struct.anon.1 = type { ptr, ptr }
%struct.anon.2 = type { ptr, ptr }
%struct.anon.3 = type { ptr, ptr }
%struct.anon.4 = type { ptr, ptr }
%struct.anon.5 = type { ptr }

@.str = private unnamed_addr constant [30 x i8] c"../qemu/util/fdmon-io_uring.c\00", align 1
@.str.1 = private unnamed_addr constant [43 x i8] c"!QLIST_IS_INSERTED(old_node, node_deleted)\00", align 1
@__PRETTY_FUNCTION__.fdmon_io_uring_update = private unnamed_addr constant [69 x i8] c"void fdmon_io_uring_update(AioContext *, AioHandler *, AioHandler *)\00", align 1
@__func__.enqueue = private unnamed_addr constant [8 x i8] c"enqueue\00", align 1

; Function Attrs: nounwind sspstrong uwtable
define internal void @enqueue(ptr noundef %head, ptr noundef %node, i32 noundef %flags) #0 {
entry:
  %head.addr = alloca ptr, align 8
  %node.addr = alloca ptr, align 8
  %flags.addr = alloca i32, align 4
  %old_flags = alloca i32, align 4
  %.atomictmp = alloca i32, align 4
  %atomic-temp = alloca i32, align 4
  %save_sle_next = alloca ptr, align 8
  %tmp = alloca ptr, align 8
  %_old = alloca ptr, align 8
  %.atomictmp6 = alloca ptr, align 8
  %cmpxchg.bool = alloca i8, align 1
  %tmp8 = alloca ptr, align 8
  store ptr %head, ptr %head.addr, align 8
  store ptr %node, ptr %node.addr, align 8
  store i32 %flags, ptr %flags.addr, align 4
  %0 = load ptr, ptr %node.addr, align 8
  %flags1 = getelementptr inbounds %struct.AioHandler, ptr %0, i32 0, i32 13
  %1 = load i32, ptr %flags.addr, align 4
  %or = or i32 1, %1
  store i32 %or, ptr %.atomictmp, align 4
  %2 = load i32, ptr %.atomictmp, align 4
  %3 = atomicrmw or ptr %flags1, i32 %2 seq_cst, align 8
  store i32 %3, ptr %atomic-temp, align 4
  %4 = load i32, ptr %atomic-temp, align 4
  store i32 %4, ptr %old_flags, align 4
  %5 = load i32, ptr %old_flags, align 4
  %and = and i32 %5, 1
  %tobool = icmp ne i32 %and, 0
  br i1 %tobool, label %if.end, label %if.then

if.then:                                          ; preds = %entry
  br label %do.body

do.body:                                          ; preds = %if.then
  br label %do.body2

do.body2:                                         ; preds = %cmpxchg.continue, %do.body
  %6 = load ptr, ptr %head.addr, align 8
  %slh_first = getelementptr inbounds %struct.AioHandlerSList, ptr %6, i32 0, i32 0
  %7 = load ptr, ptr %slh_first, align 8
  %8 = load ptr, ptr %node.addr, align 8
  %node_submitted = getelementptr inbounds %struct.AioHandler, ptr %8, i32 0, i32 12
  %sle_next = getelementptr inbounds %struct.anon.5, ptr %node_submitted, i32 0, i32 0
  store ptr %7, ptr %sle_next, align 8
  store ptr %7, ptr %save_sle_next, align 8
  br label %do.cond

do.cond:                                          ; preds = %do.body2
  br label %while.cond

while.cond:                                       ; preds = %do.end, %do.cond
  br i1 false, label %while.body, label %while.end

while.body:                                       ; preds = %while.cond
  br label %do.body3

do.body3:                                         ; preds = %while.body
  call void @g_assertion_message_expr(ptr noundef null, ptr noundef @.str, i32 noundef 108, ptr noundef @__func__.enqueue, ptr noundef null) #4
  unreachable

do.end:                                           ; No predecessors!
  br label %while.cond

while.end:                                        ; preds = %while.cond
  %9 = load ptr, ptr %save_sle_next, align 8
  store ptr %9, ptr %_old, align 8
  %10 = load ptr, ptr %head.addr, align 8
  %slh_first5 = getelementptr inbounds %struct.AioHandlerSList, ptr %10, i32 0, i32 0
  %11 = load ptr, ptr %node.addr, align 8
  store ptr %11, ptr %.atomictmp6, align 8
  %12 = load i64, ptr %_old, align 8
  %13 = load i64, ptr %.atomictmp6, align 8
  %14 = cmpxchg ptr %slh_first5, i64 %12, i64 %13 seq_cst seq_cst, align 8
  %15 = extractvalue { i64, i1 } %14, 0
  %16 = extractvalue { i64, i1 } %14, 1
  br i1 %16, label %cmpxchg.continue, label %cmpxchg.store_expected

cmpxchg.store_expected:                           ; preds = %while.end
  store i64 %15, ptr %_old, align 8
  br label %cmpxchg.continue

cmpxchg.continue:                                 ; preds = %cmpxchg.store_expected, %while.end
  %frombool = zext i1 %16 to i8
  store i8 %frombool, ptr %cmpxchg.bool, align 1
  %17 = load ptr, ptr %_old, align 8
  store ptr %17, ptr %tmp8, align 8
  %18 = load ptr, ptr %tmp8, align 8
  store ptr %18, ptr %tmp, align 8
  %19 = load ptr, ptr %tmp, align 8
  %20 = load ptr, ptr %save_sle_next, align 8
  %cmp = icmp ne ptr %19, %20
  br i1 %cmp, label %do.body2, label %do.end9, !llvm.loop !9

do.end9:                                          ; preds = %cmpxchg.continue
  br label %do.end11

do.end11:                                         ; preds = %do.end9
  br label %if.end

if.end:                                           ; preds = %do.end11, %entry
  ret void
}

; Function Attrs: nounwind sspstrong uwtable
define internal void @fdmon_io_uring_update(ptr noundef %ctx, ptr noundef %old_node, ptr noundef %new_node) #0 {
entry:
  %ctx.addr = alloca ptr, align 8
  %old_node.addr = alloca ptr, align 8
  %new_node.addr = alloca ptr, align 8
  store ptr %ctx, ptr %ctx.addr, align 8
  store ptr %old_node, ptr %old_node.addr, align 8
  store ptr %new_node, ptr %new_node.addr, align 8
  %0 = load ptr, ptr %new_node.addr, align 8
  %tobool = icmp ne ptr %0, null
  br i1 %tobool, label %if.then, label %if.end

if.then:                                          ; preds = %entry
  %1 = load ptr, ptr %ctx.addr, align 8
  %submit_list = getelementptr inbounds %struct.AioContext, ptr %1, i32 0, i32 18
  %2 = load ptr, ptr %new_node.addr, align 8
  call void @enqueue(ptr noundef %submit_list, ptr noundef %2, i32 noundef 2)
  br label %if.end

if.end:                                           ; preds = %if.then, %entry
  %3 = load ptr, ptr %old_node.addr, align 8
  %tobool1 = icmp ne ptr %3, null
  br i1 %tobool1, label %if.then2, label %if.end9

if.then2:                                         ; preds = %if.end
  %4 = load ptr, ptr %old_node.addr, align 8
  %node_deleted = getelementptr inbounds %struct.AioHandler, ptr %4, i32 0, i32 10
  %le_prev = getelementptr inbounds %struct.anon.3, ptr %node_deleted, i32 0, i32 1
  %5 = load ptr, ptr %le_prev, align 8
  %cmp = icmp ne ptr %5, null
  br i1 %cmp, label %if.else, label %if.then3

if.then3:                                         ; preds = %if.then2
  br label %if.end4

if.else:                                          ; preds = %if.then2
  call void @__assert_fail(ptr noundef @.str.1, ptr noundef @.str, i32 noundef 162, ptr noundef @__PRETTY_FUNCTION__.fdmon_io_uring_update) #6
  unreachable

if.end4:                                          ; preds = %if.then3
  %6 = load ptr, ptr %old_node.addr, align 8
  %node_deleted5 = getelementptr inbounds %struct.AioHandler, ptr %6, i32 0, i32 10
  %le_next = getelementptr inbounds %struct.anon.3, ptr %node_deleted5, i32 0, i32 0
  %7 = load ptr, ptr %old_node.addr, align 8
  %node_deleted6 = getelementptr inbounds %struct.AioHandler, ptr %7, i32 0, i32 10
  %le_prev7 = getelementptr inbounds %struct.anon.3, ptr %node_deleted6, i32 0, i32 1
  store ptr %le_next, ptr %le_prev7, align 8
  %8 = load ptr, ptr %ctx.addr, align 8
  %submit_list8 = getelementptr inbounds %struct.AioContext, ptr %8, i32 0, i32 18
  %9 = load ptr, ptr %old_node.addr, align 8
  call void @enqueue(ptr noundef %submit_list8, ptr noundef %9, i32 noundef 4)
  br label %if.end9

if.end9:                                          ; preds = %if.end4, %if.end
  ret void
}