; Function Attrs: nounwind sspstrong uwtable
define internal void @fdmon_io_uring_update(ptr noundef captures(none) %ctx, ptr noundef %old_node, ptr noundef %new_node) #0 {
entry:
  %tobool.not = icmp eq ptr %new_node, null
  br i1 %tobool.not, label %if.end, label %if.then

if.then:                                          ; preds = %entry
  %submit_list = getelementptr inbounds nuw i8, ptr %ctx, i64 472
  %flags1.i = getelementptr inbounds nuw i8, ptr %new_node, i64 136
  %0 = atomicrmw or ptr %flags1.i, i32 3 seq_cst, align 8
  %and.i = and i32 %0, 1
  %tobool.not.i = icmp eq i32 %and.i, 0
  br i1 %tobool.not.i, label %do.body2.preheader.i, label %if.end

do.body2.preheader.i:                             ; preds = %if.then
  %node_submitted.i = getelementptr inbounds nuw i8, ptr %new_node, i64 128
  %1 = ptrtoint ptr %new_node to i64
  br label %do.body2.i

do.body2.i:                                       ; preds = %do.body2.i, %do.body2.preheader.i
  %2 = load ptr, ptr %submit_list, align 8
  store ptr %2, ptr %node_submitted.i, align 8
  %3 = ptrtoint ptr %2 to i64
  %4 = cmpxchg ptr %submit_list, i64 %3, i64 %1 seq_cst seq_cst, align 8
  %5 = extractvalue { i64, i1 } %4, 1
  %6 = extractvalue { i64, i1 } %4, 0
  %7 = inttoptr i64 %6 to ptr
  %cmp.not5.i = icmp eq ptr %2, %7
  %cmp.not.i = select i1 %5, i1 true, i1 %cmp.not5.i
  br i1 %cmp.not.i, label %if.end, label %do.body2.i, !llvm.loop !8

if.end:                                           ; preds = %do.body2.i, %if.then, %entry
  %tobool1.not = icmp eq ptr %old_node, null
  br i1 %tobool1.not, label %if.end9, label %if.then2

if.then2:                                         ; preds = %if.end
  %le_prev = getelementptr inbounds nuw i8, ptr %old_node, i64 104
  %8 = load ptr, ptr %le_prev, align 8
  %cmp.not = icmp eq ptr %8, null
  br i1 %cmp.not, label %if.end4, label %if.else

if.else:                                          ; preds = %if.then2
  tail call void @__assert_fail(ptr noundef nonnull @.str.1, ptr noundef nonnull @.str, i32 noundef 162, ptr noundef nonnull @__PRETTY_FUNCTION__.fdmon_io_uring_update) #7
  unreachable

if.end4:                                          ; preds = %if.then2
  %node_deleted = getelementptr inbounds nuw i8, ptr %old_node, i64 96
  store ptr %node_deleted, ptr %le_prev, align 8
  %submit_list8 = getelementptr inbounds nuw i8, ptr %ctx, i64 472
  %flags1.i7 = getelementptr inbounds nuw i8, ptr %old_node, i64 136
  %9 = atomicrmw or ptr %flags1.i7, i32 5 seq_cst, align 8
  %and.i8 = and i32 %9, 1
  %tobool.not.i9 = icmp eq i32 %and.i8, 0
  br i1 %tobool.not.i9, label %do.body2.preheader.i10, label %if.end9

do.body2.preheader.i10:                           ; preds = %if.end4
  %node_submitted.i11 = getelementptr inbounds nuw i8, ptr %old_node, i64 128
  %10 = ptrtoint ptr %old_node to i64
  br label %do.body2.i12

do.body2.i12:                                     ; preds = %do.body2.i12, %do.body2.preheader.i10
  %11 = load ptr, ptr %submit_list8, align 8
  store ptr %11, ptr %node_submitted.i11, align 8
  %12 = ptrtoint ptr %11 to i64
  %13 = cmpxchg ptr %submit_list8, i64 %12, i64 %10 seq_cst seq_cst, align 8
  %14 = extractvalue { i64, i1 } %13, 1
  %15 = extractvalue { i64, i1 } %13, 0
  %16 = inttoptr i64 %15 to ptr
  %cmp.not5.i13 = icmp eq ptr %11, %16
  %cmp.not.i14 = select i1 %14, i1 true, i1 %cmp.not5.i13
  br i1 %cmp.not.i14, label %if.end9, label %do.body2.i12, !llvm.loop !8

if.end9:                                          ; preds = %do.body2.i12, %if.end4, %if.end
  ret void
}